; Function Attrs: mustprogress uwtable
define internal fastcc void @_ZN12_GLOBAL__N_110make_valueERNSt7__cxx1112basic_stringIcSt11char_traitsIcESaIcEEE(ptr dead_on_unwind noalias writable align 8 %0, ptr noundef nonnull align 8 dereferenceable(32) %1) unnamed_addr #4 personality ptr @__gxx_personality_v0 {
  %3 = alloca %"class.std::__cxx11::basic_string", align 8
  %4 = alloca %"struct.Yosys::RTLIL::SigSpec", align 8
  %5 = alloca %"class.std::__cxx11::basic_string", align 8
  %6 = tail call noundef i64 @_ZNKSt7__cxx1112basic_stringIcSt11char_traitsIcESaIcEE4sizeEv(ptr noundef nonnull align 8 dereferenceable(32) %1) #21
  %7 = trunc i64 %6 to i32
  %8 = icmp sgt i32 %7, 1
  br i1 %8, label %9, label %24

9:                                                ; preds = %2
  %10 = tail call noundef nonnull align 1 dereferenceable(1) ptr @_ZNSt7__cxx1112basic_stringIcSt11char_traitsIcESaIcEE5frontEv(ptr noundef nonnull align 8 dereferenceable(32) %1) #21
  %11 = load i8, ptr %10, align 1
  %12 = icmp eq i8 %11, 34
  br i1 %12, label %13, label %24

13:                                               ; preds = %9
  %14 = tail call noundef nonnull align 1 dereferenceable(1) ptr @_ZNSt7__cxx1112basic_stringIcSt11char_traitsIcESaIcEE4backEv(ptr noundef nonnull align 8 dereferenceable(32) %1) #21
  %15 = load i8, ptr %14, align 1
  %16 = icmp eq i8 %15, 34
  br i1 %16, label %17, label %24

17:                                               ; preds = %13
  %18 = tail call noundef i64 @_ZNKSt7__cxx1112basic_stringIcSt11char_traitsIcESaIcEE4sizeEv(ptr noundef nonnull align 8 dereferenceable(32) %1) #21
  %19 = shl i64 %18, 32
  %sext = add i64 %19, -8589934592
  %20 = ashr exact i64 %sext, 32
  call void @_ZNKSt7__cxx1112basic_stringIcSt11char_traitsIcESaIcEE6substrEmm(ptr dead_on_unwind nonnull writable sret(%"class.std::__cxx11::basic_string") align 8 %3, ptr noundef nonnull align 8 dereferenceable(32) %1, i64 noundef 1, i64 noundef %20)
  invoke void @_ZN5Yosys5RTLIL5ConstC1ERKNSt7__cxx1112basic_stringIcSt11char_traitsIcESaIcEEE(ptr noundef nonnull align 8 dereferenceable(32) %0, ptr noundef nonnull align 8 dereferenceable(32) %3)
          to label %21 unwind label %22

21:                                               ; preds = %17
  call void @_ZNSt7__cxx1112basic_stringIcSt11char_traitsIcESaIcEED1Ev(ptr noundef nonnull align 8 dereferenceable(32) %3) #21
  br label %_ZN5Yosys5RTLIL7SigSpecD2Ev.exit

22:                                               ; preds = %17
  %23 = landingpad { ptr, i32 }
          cleanup
  call void @_ZNSt7__cxx1112basic_stringIcSt11char_traitsIcESaIcEED1Ev(ptr noundef nonnull align 8 dereferenceable(32) %3) #21
  br label %48

24:                                               ; preds = %13, %9, %2
  store i32 0, ptr %4, align 8
  %25 = getelementptr inbounds i8, ptr %4, i64 8
  call void @llvm.memset.p0.i64(ptr noundef nonnull align 8 dereferenceable(56) %25, i8 0, i64 56, i1 false)
  invoke void @_ZNSt7__cxx1112basic_stringIcSt11char_traitsIcESaIcEEC1ERKS4_(ptr noundef nonnull align 8 dereferenceable(32) %5, ptr noundef nonnull align 8 dereferenceable(32) %1)
          to label %26 unwind label %43

26:                                               ; preds = %24
  %27 = invoke noundef zeroext i1 @_ZN5Yosys5RTLIL7SigSpec5parseERS1_PNS0_6ModuleENSt7__cxx1112basic_stringIcSt11char_traitsIcESaIcEEE(ptr noundef nonnull align 8 dereferenceable(64) %4, ptr noundef null, ptr noundef nonnull %5)
          to label %28 unwind label %45

28:                                               ; preds = %26
  call void @_ZNSt7__cxx1112basic_stringIcSt11char_traitsIcESaIcEED1Ev(ptr noundef nonnull align 8 dereferenceable(32) %5) #21
  invoke void @_ZNK5Yosys5RTLIL7SigSpec8as_constEv(ptr dead_on_unwind writable sret(%"struct.Yosys::RTLIL::Const") align 8 %0, ptr noundef nonnull align 8 dereferenceable(64) %4)
          to label %29 unwind label %43

29:                                               ; preds = %28
  %30 = getelementptr inbounds i8, ptr %4, i64 40
  %31 = load ptr, ptr %30, align 8
  %.not.i.i.i.i = icmp eq ptr %31, null
  br i1 %.not.i.i.i.i, label %_ZNSt6vectorIN5Yosys5RTLIL6SigBitESaIS2_EED2Ev.exit.i, label %32

32:                                               ; preds = %29
  call void @_ZdlPv(ptr noundef nonnull %31) #22
  br label %_ZNSt6vectorIN5Yosys5RTLIL6SigBitESaIS2_EED2Ev.exit.i

_ZNSt6vectorIN5Yosys5RTLIL6SigBitESaIS2_EED2Ev.exit.i: ; preds = %32, %29
  %33 = getelementptr inbounds i8, ptr %4, i64 16
  %34 = load ptr, ptr %33, align 8
  %35 = getelementptr inbounds i8, ptr %4, i64 24
  %36 = load ptr, ptr %35, align 8
  %.not4.i.i.i.i.i = icmp eq ptr %34, %36
  br i1 %.not4.i.i.i.i.i, label %_ZSt8_DestroyIPN5Yosys5RTLIL8SigChunkES2_EvT_S4_RSaIT0_E.exit.i.i, label %.lr.ph.i.i.i.i.i

.lr.ph.i.i.i.i.i:                                 ; preds = %_ZNSt6vectorIN5Yosys5RTLIL6SigBitESaIS2_EED2Ev.exit.i, %_ZSt8_DestroyIN5Yosys5RTLIL8SigChunkEEvPT_.exit.i.i.i.i.i
  %.05.i.i.i.i.i = phi ptr [ %40, %_ZSt8_DestroyIN5Yosys5RTLIL8SigChunkEEvPT_.exit.i.i.i.i.i ], [ %34, %_ZNSt6vectorIN5Yosys5RTLIL6SigBitESaIS2_EED2Ev.exit.i ]
  %37 = getelementptr inbounds i8, ptr %.05.i.i.i.i.i, i64 8
  %38 = load ptr, ptr %37, align 8
  %.not.i.i.i.i.i.i.i.i.i.i = icmp eq ptr %38, null
  br i1 %.not.i.i.i.i.i.i.i.i.i.i, label %_ZSt8_DestroyIN5Yosys5RTLIL8SigChunkEEvPT_.exit.i.i.i.i.i, label %39

39:                                               ; preds = %.lr.ph.i.i.i.i.i
  call void @_ZdlPv(ptr noundef nonnull %38) #22
  br label %_ZSt8_DestroyIN5Yosys5RTLIL8SigChunkEEvPT_.exit.i.i.i.i.i

_ZSt8_DestroyIN5Yosys5RTLIL8SigChunkEEvPT_.exit.i.i.i.i.i: ; preds = %39, %.lr.ph.i.i.i.i.i
  %40 = getelementptr inbounds i8, ptr %.05.i.i.i.i.i, i64 40
  %.not.i.i.i.i.i = icmp eq ptr %40, %36
  br i1 %.not.i.i.i.i.i, label %_ZSt8_DestroyIPN5Yosys5RTLIL8SigChunkES2_EvT_S4_RSaIT0_E.exitthread-pre-split.i.i, label %.lr.ph.i.i.i.i.i, !llvm.loop !67

_ZSt8_DestroyIPN5Yosys5RTLIL8SigChunkES2_EvT_S4_RSaIT0_E.exitthread-pre-split.i.i: ; preds = %_ZSt8_DestroyIN5Yosys5RTLIL8SigChunkEEvPT_.exit.i.i.i.i.i
  %.pr.i.i = load ptr, ptr %33, align 8
  br label %_ZSt8_DestroyIPN5Yosys5RTLIL8SigChunkES2_EvT_S4_RSaIT0_E.exit.i.i

_ZSt8_DestroyIPN5Yosys5RTLIL8SigChunkES2_EvT_S4_RSaIT0_E.exit.i.i: ; preds = %_ZSt8_DestroyIPN5Yosys5RTLIL8SigChunkES2_EvT_S4_RSaIT0_E.exitthread-pre-split.i.i, %_ZNSt6vectorIN5Yosys5RTLIL6SigBitESaIS2_EED2Ev.exit.i
  %41 = phi ptr [ %.pr.i.i, %_ZSt8_DestroyIPN5Yosys5RTLIL8SigChunkES2_EvT_S4_RSaIT0_E.exitthread-pre-split.i.i ], [ %34, %_ZNSt6vectorIN5Yosys5RTLIL6SigBitESaIS2_EED2Ev.exit.i ]
  %.not.i.i.i1.i = icmp eq ptr %41, null
  br i1 %.not.i.i.i1.i, label %_ZN5Yosys5RTLIL7SigSpecD2Ev.exit, label %42

42:                                               ; preds = %_ZSt8_DestroyIPN5Yosys5RTLIL8SigChunkES2_EvT_S4_RSaIT0_E.exit.i.i
  call void @_ZdlPv(ptr noundef nonnull %41) #22
  br label %_ZN5Yosys5RTLIL7SigSpecD2Ev.exit

43:                                               ; preds = %28, %24
  %44 = landingpad { ptr, i32 }
          cleanup
  br label %47

45:                                               ; preds = %26
  %46 = landingpad { ptr, i32 }
          cleanup
  call void @_ZNSt7__cxx1112basic_stringIcSt11char_traitsIcESaIcEED1Ev(ptr noundef nonnull align 8 dereferenceable(32) %5) #21
  br label %47

47:                                               ; preds = %45, %43
  %.pn = phi { ptr, i32 } [ %44, %43 ], [ %46, %45 ]
  call void @_ZN5Yosys5RTLIL7SigSpecD2Ev(ptr noundef nonnull align 8 dereferenceable(64) %4) #21
  br label %48

_ZN5Yosys5RTLIL7SigSpecD2Ev.exit:                 ; preds = %42, %_ZSt8_DestroyIPN5Yosys5RTLIL8SigChunkES2_EvT_S4_RSaIT0_E.exit.i.i, %21
  ret void

48:                                               ; preds = %47, %22
  %.pn10 = phi { ptr, i32 } [ %23, %22 ], [ %.pn, %47 ]
  resume { ptr, i32 } %.pn10
}